target datalayout = "e-m:e-p270:32:32-p271:32:32-p272:64:64-i64:64-i128:128-f80:128-n8:16:32:64-S128"
target triple = "x86_64-pc-linux-gnu"

%struct.SRBRoot = type { ptr, ptr, i32, i32, i8, i8, i8, ptr, ptr, i32, i32, i32, i32, i32, %"class.icu_77::UnicodeString", i32, ptr, i32, i32, i32, ptr }
%"class.icu_77::UnicodeString" = type { %"class.icu_77::Replaceable", %"union.icu_77::UnicodeString::StackBufferOrFields" }
%"class.icu_77::Replaceable" = type { %"class.icu_77::UObject" }
%"class.icu_77::UObject" = type { ptr }
%"union.icu_77::UnicodeString::StackBufferOrFields" = type { %struct.anon.0, [32 x i8] }
%struct.anon.0 = type { i16, i32, i32, ptr }

@_ZL5start = internal global i8 1, align 1
@.str.1 = private unnamed_addr constant [15 x i8] c"LocaleElements\00", align 1
@_ZL5bName = internal global ptr null, align 8
@.str.2 = private unnamed_addr constant [22 x i8] c"com.ibm.icu.impl.data\00", align 1
@_ZL5pName = internal global ptr null, align 8
@_ZL8srBundle = internal global ptr null, align 8
@.str.3 = private unnamed_addr constant [5 x i8] c"root\00", align 1
@.str.4 = private unnamed_addr constant [2 x i8] c"_\00", align 1
@.str.5 = private unnamed_addr constant [2 x i8] c"/\00", align 1
@.str.6 = private unnamed_addr constant [6 x i8] c".java\00", align 1
@.str.7 = private unnamed_addr constant [2 x i8] c"w\00", align 1
@_ZL3out = internal global ptr null, align 8
@.str.8 = private unnamed_addr constant [9 x i8] c"package \00", align 1
@.str.9 = private unnamed_addr constant [4 x i8] c";\0A\0A\00", align 1
@_ZL9javaClass = internal global ptr @.str.35, align 8
@_ZL10javaClass1 = internal global ptr @.str.36, align 8
@_ZL3enc = internal global ptr @.str.37, align 8
@_ZL4conv = internal global ptr null, align 8
@_ZL10closeClass = internal global ptr @.str.38, align 8

; Function Attrs: inlinehint mustprogress nounwind uwtable
define internal noundef signext i8 @_ZL9U_FAILURE10UErrorCode(i32 noundef %0) #1 {
  %2 = alloca i32, align 4
  store i32 %0, ptr %2, align 4, !tbaa !10
  %3 = load i32, ptr %2, align 4, !tbaa !10
  %4 = icmp sgt i32 %3, 0
  %5 = zext i1 %4 to i8
  ret i8 %5
}

; Function Attrs: mustprogress uwtable
define dso_local void @bundle_write_java(ptr noundef %0, ptr noundef %1, ptr noundef %2, ptr noundef %3, i32 noundef %4, ptr noundef %5, ptr noundef %6, ptr noundef %7) #0 {
  %9 = alloca ptr, align 8
  %10 = alloca ptr, align 8
  %11 = alloca ptr, align 8
  %12 = alloca ptr, align 8
  %13 = alloca i32, align 4
  %14 = alloca ptr, align 8
  %15 = alloca ptr, align 8
  %16 = alloca ptr, align 8
  %17 = alloca [256 x i8], align 16
  %18 = alloca [256 x i8], align 16
  %19 = alloca i32, align 4
  store ptr %0, ptr %9, align 8, !tbaa !19
  store ptr %1, ptr %10, align 8, !tbaa !24
  store ptr %2, ptr %11, align 8, !tbaa !24
  store ptr %3, ptr %12, align 8, !tbaa !24
  store i32 %4, ptr %13, align 4, !tbaa !23
  store ptr %5, ptr %14, align 8, !tbaa !24
  store ptr %6, ptr %15, align 8, !tbaa !24
  store ptr %7, ptr %16, align 8, !tbaa !9
  call void @llvm.lifetime.start.p0(i64 256, ptr %17) #10
  call void @llvm.memset.p0.i64(ptr align 16 %17, i8 0, i64 256, i1 false)
  call void @llvm.lifetime.start.p0(i64 256, ptr %18) #10
  call void @llvm.memset.p0.i64(ptr align 16 %18, i8 0, i64 256, i1 false)
  store i8 1, ptr @_ZL5start, align 1, !tbaa !26
  %20 = load ptr, ptr %15, align 8, !tbaa !24
  %21 = icmp eq ptr %20, null
  br i1 %21, label %22, label %23

22:                                               ; preds = %8
  br label %25

23:                                               ; preds = %8
  %24 = load ptr, ptr %15, align 8, !tbaa !24
  br label %25

25:                                               ; preds = %23, %22
  %26 = phi ptr [ @.str.1, %22 ], [ %24, %23 ]
  store ptr %26, ptr @_ZL5bName, align 8, !tbaa !24
  %27 = load ptr, ptr %14, align 8, !tbaa !24
  %28 = icmp eq ptr %27, null
  br i1 %28, label %29, label %30

29:                                               ; preds = %25
  br label %32

30:                                               ; preds = %25
  %31 = load ptr, ptr %14, align 8, !tbaa !24
  br label %32

32:                                               ; preds = %30, %29
  %33 = phi ptr [ @.str.2, %29 ], [ %31, %30 ]
  store ptr %33, ptr @_ZL5pName, align 8, !tbaa !24
  %34 = getelementptr inbounds [256 x i8], ptr %18, i64 0, i64 0
  %35 = load ptr, ptr @_ZL5bName, align 8, !tbaa !24
  %36 = call ptr @strcpy(ptr noundef %34, ptr noundef %35) #10
  %37 = load ptr, ptr %9, align 8, !tbaa !19
  store ptr %37, ptr @_ZL8srBundle, align 8, !tbaa !19
  %38 = load ptr, ptr @_ZL8srBundle, align 8, !tbaa !19
  %39 = getelementptr inbounds nuw %struct.SRBRoot, ptr %38, i32 0, i32 1
  %40 = load ptr, ptr %39, align 8, !tbaa !58
  %41 = call i32 @strcmp(ptr noundef %40, ptr noundef @.str.3) #11
  %42 = icmp ne i32 %41, 0
  br i1 %42, label %43, label %51

43:                                               ; preds = %32
  %44 = getelementptr inbounds [256 x i8], ptr %18, i64 0, i64 0
  %45 = call ptr @strcat(ptr noundef %44, ptr noundef @.str.4) #10
  %46 = getelementptr inbounds [256 x i8], ptr %18, i64 0, i64 0
  %47 = load ptr, ptr @_ZL8srBundle, align 8, !tbaa !19
  %48 = getelementptr inbounds nuw %struct.SRBRoot, ptr %47, i32 0, i32 1
  %49 = load ptr, ptr %48, align 8, !tbaa !58
  %50 = call ptr @strcat(ptr noundef %46, ptr noundef %49) #10
  br label %51

51:                                               ; preds = %43, %32
  %52 = load ptr, ptr %10, align 8, !tbaa !24
  %53 = icmp ne ptr %52, null
  br i1 %53, label %54, label %75

54:                                               ; preds = %51
  %55 = getelementptr inbounds [256 x i8], ptr %17, i64 0, i64 0
  %56 = load ptr, ptr %10, align 8, !tbaa !24
  %57 = call ptr @strcpy(ptr noundef %55, ptr noundef %56) #10
  %58 = load ptr, ptr %10, align 8, !tbaa !24
  %59 = load ptr, ptr %10, align 8, !tbaa !24
  %60 = call i64 @strlen(ptr noundef %59) #11
  %61 = sub i64 %60, 1
  %62 = getelementptr inbounds nuw i8, ptr %58, i64 %61
  %63 = load i8, ptr %62, align 1, !tbaa !26
  %64 = sext i8 %63 to i32
  %65 = icmp ne i32 %64, 47
  br i1 %65, label %66, label %69

66:                                               ; preds = %54
  %67 = getelementptr inbounds [256 x i8], ptr %17, i64 0, i64 0
  %68 = call ptr @strcat(ptr noundef %67, ptr noundef @.str.5) #10
  br label %69

69:                                               ; preds = %66, %54
  %70 = getelementptr inbounds [256 x i8], ptr %17, i64 0, i64 0
  %71 = getelementptr inbounds [256 x i8], ptr %18, i64 0, i64 0
  %72 = call ptr @strcat(ptr noundef %70, ptr noundef %71) #10
  %73 = getelementptr inbounds [256 x i8], ptr %17, i64 0, i64 0
  %74 = call ptr @strcat(ptr noundef %73, ptr noundef @.str.6) #10
  br label %81

75:                                               ; preds = %51
  %76 = getelementptr inbounds [256 x i8], ptr %17, i64 0, i64 0
  %77 = getelementptr inbounds [256 x i8], ptr %18, i64 0, i64 0
  %78 = call ptr @strcat(ptr noundef %76, ptr noundef %77) #10
  %79 = getelementptr inbounds [256 x i8], ptr %17, i64 0, i64 0
  %80 = call ptr @strcat(ptr noundef %79, ptr noundef @.str.6) #10
  br label %81

81:                                               ; preds = %75, %69
  %82 = load ptr, ptr %12, align 8, !tbaa !24
  %83 = icmp ne ptr %82, null
  br i1 %83, label %84, label %90

84:                                               ; preds = %81
  %85 = load ptr, ptr %12, align 8, !tbaa !24
  %86 = getelementptr inbounds [256 x i8], ptr %17, i64 0, i64 0
  %87 = load i32, ptr %13, align 4, !tbaa !23
  %88 = sext i32 %87 to i64
  %89 = call ptr @strncpy(ptr noundef %85, ptr noundef %86, i64 noundef %88) #10
  br label %90

90:                                               ; preds = %84, %81
  %91 = load ptr, ptr %16, align 8, !tbaa !9
  %92 = load i32, ptr %91, align 4, !tbaa !10
  %93 = call noundef signext i8 @_ZL9U_FAILURE10UErrorCode(i32 noundef %92)
  %94 = icmp ne i8 %93, 0
  br i1 %94, label %95, label %96

95:                                               ; preds = %90
  store i32 1, ptr %19, align 4
  br label %171

96:                                               ; preds = %90
  %97 = getelementptr inbounds [256 x i8], ptr %17, i64 0, i64 0
  %98 = call ptr @T_FileStream_open(ptr noundef %97, ptr noundef @.str.7)
  store ptr %98, ptr @_ZL3out, align 8, !tbaa !27
  %99 = load ptr, ptr @_ZL3out, align 8, !tbaa !27
  %100 = icmp eq ptr %99, null
  br i1 %100, label %101, label %103

101:                                              ; preds = %96
  %102 = load ptr, ptr %16, align 8, !tbaa !9
  store i32 4, ptr %102, align 4, !tbaa !10
  store i32 1, ptr %19, align 4
  br label %171

103:                                              ; preds = %96
  %104 = call signext i8 @getIncludeCopyright()
  %105 = icmp ne i8 %104, 0
  br i1 %105, label %106, label %111

106:                                              ; preds = %103
  %107 = load ptr, ptr @_ZL3out, align 8, !tbaa !27
  %108 = call i32 @T_FileStream_write(ptr noundef %107, ptr noundef @_ZL9copyRight, i32 noundef 408)
  %109 = load ptr, ptr @_ZL3out, align 8, !tbaa !27
  %110 = call i32 @T_FileStream_write(ptr noundef %109, ptr noundef @_ZL10warningMsg, i32 noundef 507)
  br label %111

111:                                              ; preds = %106, %103
  %112 = load ptr, ptr @_ZL3out, align 8, !tbaa !27
  %113 = call i32 @T_FileStream_write(ptr noundef %112, ptr noundef @.str.8, i32 noundef 8)
  %114 = load ptr, ptr @_ZL3out, align 8, !tbaa !27
  %115 = load ptr, ptr @_ZL5pName, align 8, !tbaa !24
  %116 = load ptr, ptr @_ZL5pName, align 8, !tbaa !24
  %117 = call i64 @strlen(ptr noundef %116) #11
  %118 = trunc i64 %117 to i32
  %119 = call i32 @T_FileStream_write(ptr noundef %114, ptr noundef %115, i32 noundef %118)
  %120 = load ptr, ptr @_ZL3out, align 8, !tbaa !27
  %121 = call i32 @T_FileStream_write(ptr noundef %120, ptr noundef @.str.9, i32 noundef 3)
  %122 = load ptr, ptr @_ZL3out, align 8, !tbaa !27
  %123 = load ptr, ptr @_ZL9javaClass, align 8, !tbaa !24
  %124 = load ptr, ptr @_ZL9javaClass, align 8, !tbaa !24
  %125 = call i64 @strlen(ptr noundef %124) #11
  %126 = trunc i64 %125 to i32
  %127 = call i32 @T_FileStream_write(ptr noundef %122, ptr noundef %123, i32 noundef %126)
  %128 = load ptr, ptr @_ZL3out, align 8, !tbaa !27
  %129 = getelementptr inbounds [256 x i8], ptr %18, i64 0, i64 0
  %130 = getelementptr inbounds [256 x i8], ptr %18, i64 0, i64 0
  %131 = call i64 @strlen(ptr noundef %130) #11
  %132 = trunc i64 %131 to i32
  %133 = call i32 @T_FileStream_write(ptr noundef %128, ptr noundef %129, i32 noundef %132)
  %134 = load ptr, ptr @_ZL3out, align 8, !tbaa !27
  %135 = load ptr, ptr @_ZL10javaClass1, align 8, !tbaa !24
  %136 = load ptr, ptr @_ZL10javaClass1, align 8, !tbaa !24
  %137 = call i64 @strlen(ptr noundef %136) #11
  %138 = trunc i64 %137 to i32
  %139 = call i32 @T_FileStream_write(ptr noundef %134, ptr noundef %135, i32 noundef %138)
  %140 = load ptr, ptr %11, align 8, !tbaa !24
  %141 = icmp ne ptr %140, null
  br i1 %141, label %142, label %158

142:                                              ; preds = %111
  %143 = load ptr, ptr %11, align 8, !tbaa !24
  %144 = load i8, ptr %143, align 1, !tbaa !26
  %145 = sext i8 %144 to i32
  %146 = icmp ne i32 %145, 0
  br i1 %146, label %147, label %158

147:                                              ; preds = %142
  %148 = load ptr, ptr %11, align 8, !tbaa !24
  store ptr %148, ptr @_ZL3enc, align 8, !tbaa !24
  %149 = load ptr, ptr @_ZL3enc, align 8, !tbaa !24
  %150 = load ptr, ptr %16, align 8, !tbaa !9
  %151 = call ptr @ucnv_open_77(ptr noundef %149, ptr noundef %150)
  store ptr %151, ptr @_ZL4conv, align 8, !tbaa !65
  %152 = load ptr, ptr %16, align 8, !tbaa !9
  %153 = load i32, ptr %152, align 4, !tbaa !10
  %154 = call noundef signext i8 @_ZL9U_FAILURE10UErrorCode(i32 noundef %153)
  %155 = icmp ne i8 %154, 0
  br i1 %155, label %156, label %157

156:                                              ; preds = %147
  store i32 1, ptr %19, align 4
  br label %171

157:                                              ; preds = %147
  br label %158

158:                                              ; preds = %157, %142, %111
  %159 = load ptr, ptr %9, align 8, !tbaa !19
  %160 = getelementptr inbounds nuw %struct.SRBRoot, ptr %159, i32 0, i32 0
  %161 = load ptr, ptr %160, align 8, !tbaa !67
  %162 = load ptr, ptr %16, align 8, !tbaa !9
  call void @_Z14res_write_javaP9SResourceP10UErrorCode(ptr noundef %161, ptr noundef %162)
  %163 = load ptr, ptr @_ZL3out, align 8, !tbaa !27
  %164 = load ptr, ptr @_ZL10closeClass, align 8, !tbaa !24
  %165 = load ptr, ptr @_ZL10closeClass, align 8, !tbaa !24
  %166 = call i64 @strlen(ptr noundef %165) #11
  %167 = trunc i64 %166 to i32
  %168 = call i32 @T_FileStream_write(ptr noundef %163, ptr noundef %164, i32 noundef %167)
  %169 = load ptr, ptr @_ZL3out, align 8, !tbaa !27
  call void @T_FileStream_close(ptr noundef %169)
  %170 = load ptr, ptr @_ZL4conv, align 8, !tbaa !65
  call void @ucnv_close_77(ptr noundef %170)
  store i32 0, ptr %19, align 4
  br label %171

171:                                              ; preds = %158, %156, %101, %95
  call void @llvm.lifetime.end.p0(i64 256, ptr %18) #10
  call void @llvm.lifetime.end.p0(i64 256, ptr %17) #10
  %172 = load i32, ptr %19, align 4
  switch i32 %172, label %174 [
    i32 0, label %173
    i32 1, label %173
  ]

173:                                              ; preds = %171, %171
  ret void

174:                                              ; preds = %171
  unreachable
}