; Function Attrs: mustprogress uwtable
define dso_local void @bundle_write_java(ptr noundef %0, ptr noundef readonly %1, ptr noundef %2, ptr noundef %3, i32 noundef %4, ptr noundef %5, ptr noundef %6, ptr noundef %7) local_unnamed_addr #0 {
  %9 = alloca [256 x i8], align 16
  %10 = alloca [256 x i8], align 16
  call void @llvm.lifetime.start.p0(i64 256, ptr nonnull %9) #9
  call void @llvm.memset.p0.i64(ptr noundef nonnull align 16 dereferenceable(256) %9, i8 0, i64 256, i1 false)
  call void @llvm.lifetime.start.p0(i64 256, ptr nonnull %10) #9
  call void @llvm.memset.p0.i64(ptr noundef nonnull align 16 dereferenceable(256) %10, i8 0, i64 256, i1 false)
  store i1 false, ptr @_ZL5start, align 1
  %11 = icmp eq ptr %6, null
  %12 = select i1 %11, ptr @.str.1, ptr %6
  store ptr %12, ptr @_ZL5bName, align 8, !tbaa !21
  %13 = icmp eq ptr %5, null
  %14 = select i1 %13, ptr @.str.2, ptr %5
  store ptr %14, ptr @_ZL5pName, align 8, !tbaa !21
  %15 = call ptr @strcpy(ptr noundef nonnull dereferenceable(1) %10, ptr noundef nonnull dereferenceable(1) %12) #9
  store ptr %0, ptr @_ZL8srBundle, align 8, !tbaa !15
  %16 = getelementptr inbounds nuw i8, ptr %0, i64 8
  %17 = load ptr, ptr %16, align 8, !tbaa !56
  %18 = call i32 @strcmp(ptr noundef nonnull dereferenceable(1) %17, ptr noundef nonnull dereferenceable(5) @.str.3) #10
  %.not = icmp eq i32 %18, 0
  br i1 %.not, label %21, label %19

19:                                               ; preds = %8
  %strlen = call i64 @strlen(ptr nonnull dereferenceable(1) %10)
  %endptr = getelementptr inbounds i8, ptr %10, i64 %strlen
  store i16 95, ptr %endptr, align 1
  %20 = call ptr @strcat(ptr noundef nonnull dereferenceable(1) %10, ptr noundef nonnull dereferenceable(1) %17) #9
  br label %21

21:                                               ; preds = %19, %8
  %.not22 = icmp eq ptr %1, null
  br i1 %.not22, label %29, label %22

22:                                               ; preds = %21
  %23 = call ptr @strcpy(ptr noundef nonnull dereferenceable(1) %9, ptr noundef nonnull dereferenceable(1) %1) #9
  %24 = call i64 @strlen(ptr noundef nonnull dereferenceable(1) %1) #10
  %25 = getelementptr i8, ptr %1, i64 %24
  %26 = getelementptr i8, ptr %25, i64 -1
  %27 = load i8, ptr %26, align 1, !tbaa !17
  %.not25 = icmp eq i8 %27, 47
  br i1 %.not25, label %29, label %28

28:                                               ; preds = %22
  %strlen26 = call i64 @strlen(ptr nonnull dereferenceable(1) %9)
  %endptr27 = getelementptr inbounds i8, ptr %9, i64 %strlen26
  store i16 47, ptr %endptr27, align 1
  br label %29

29:                                               ; preds = %21, %22, %28
  %30 = call ptr @strcat(ptr noundef nonnull dereferenceable(1) %9, ptr noundef nonnull dereferenceable(1) %10) #9
  %strlen23 = call i64 @strlen(ptr nonnull dereferenceable(1) %9)
  %endptr24 = getelementptr inbounds i8, ptr %9, i64 %strlen23
  call void @llvm.memcpy.p0.p0.i64(ptr noundef nonnull align 1 dereferenceable(6) %endptr24, ptr noundef nonnull align 1 dereferenceable(6) @.str.6, i64 6, i1 false)
  %.not30 = icmp eq ptr %3, null
  br i1 %.not30, label %34, label %31

31:                                               ; preds = %29
  %32 = sext i32 %4 to i64
  %33 = call ptr @strncpy(ptr noundef nonnull %3, ptr noundef nonnull %9, i64 noundef %32) #9
  br label %34

34:                                               ; preds = %31, %29
  %35 = load i32, ptr %7, align 4, !tbaa !4
  %36 = icmp slt i32 %35, 1
  br i1 %36, label %37, label %78

37:                                               ; preds = %34
  %38 = call ptr @T_FileStream_open(ptr noundef nonnull %9, ptr noundef nonnull @.str.7)
  store ptr %38, ptr @_ZL3out, align 8, !tbaa !27
  %39 = icmp eq ptr %38, null
  br i1 %39, label %40, label %41

40:                                               ; preds = %37
  store i32 4, ptr %7, align 4, !tbaa !4
  br label %78

41:                                               ; preds = %37
  %42 = call signext i8 @getIncludeCopyright()
  %.not32 = icmp eq i8 %42, 0
  br i1 %.not32, label %48, label %43

43:                                               ; preds = %41
  %44 = load ptr, ptr @_ZL3out, align 8, !tbaa !27
  %45 = call i32 @T_FileStream_write(ptr noundef %44, ptr noundef nonnull @_ZL9copyRight, i32 noundef 408)
  %46 = load ptr, ptr @_ZL3out, align 8, !tbaa !27
  %47 = call i32 @T_FileStream_write(ptr noundef %46, ptr noundef nonnull @_ZL10warningMsg, i32 noundef 507)
  br label %48

48:                                               ; preds = %43, %41
  %49 = load ptr, ptr @_ZL3out, align 8, !tbaa !27
  %50 = call i32 @T_FileStream_write(ptr noundef %49, ptr noundef nonnull @.str.8, i32 noundef 8)
  %51 = load ptr, ptr @_ZL3out, align 8, !tbaa !27
  %52 = load ptr, ptr @_ZL5pName, align 8, !tbaa !21
  %53 = call i64 @strlen(ptr noundef nonnull dereferenceable(1) %52) #10
  %54 = trunc i64 %53 to i32
  %55 = call i32 @T_FileStream_write(ptr noundef %51, ptr noundef nonnull %52, i32 noundef %54)
  %56 = load ptr, ptr @_ZL3out, align 8, !tbaa !27
  %57 = call i32 @T_FileStream_write(ptr noundef %56, ptr noundef nonnull @.str.9, i32 noundef 3)
  %58 = load ptr, ptr @_ZL3out, align 8, !tbaa !27
  %59 = call i32 @T_FileStream_write(ptr noundef %58, ptr noundef nonnull @.str.35, i32 noundef 51)
  %60 = load ptr, ptr @_ZL3out, align 8, !tbaa !27
  %61 = call i64 @strlen(ptr noundef nonnull dereferenceable(1) %10) #10
  %62 = trunc i64 %61 to i32
  %63 = call i32 @T_FileStream_write(ptr noundef %60, ptr noundef nonnull %10, i32 noundef %62)
  %64 = load ptr, ptr @_ZL3out, align 8, !tbaa !27
  %65 = call i32 @T_FileStream_write(ptr noundef %64, ptr noundef nonnull @.str.36, i32 noundef 207)
  %.not33 = icmp eq ptr %2, null
  br i1 %.not33, label %72, label %66

66:                                               ; preds = %48
  %67 = load i8, ptr %2, align 1, !tbaa !17
  %.not34 = icmp eq i8 %67, 0
  br i1 %.not34, label %72, label %68

68:                                               ; preds = %66
  store ptr %2, ptr @_ZL3enc, align 8, !tbaa !21
  %69 = call ptr @ucnv_open_77(ptr noundef nonnull %2, ptr noundef nonnull %7)
  store ptr %69, ptr @_ZL4conv, align 8, !tbaa !23
  %70 = load i32, ptr %7, align 4, !tbaa !4
  %71 = icmp slt i32 %70, 1
  br i1 %71, label %72, label %78

72:                                               ; preds = %68, %66, %48
  %73 = load ptr, ptr %0, align 8, !tbaa !63
  call void @_Z14res_write_javaP9SResourceP10UErrorCode(ptr noundef %73, ptr noundef nonnull %7)
  %74 = load ptr, ptr @_ZL3out, align 8, !tbaa !27
  %75 = call i32 @T_FileStream_write(ptr noundef %74, ptr noundef nonnull @.str.38, i32 noundef 9)
  %76 = load ptr, ptr @_ZL3out, align 8, !tbaa !27
  call void @T_FileStream_close(ptr noundef %76)
  %77 = load ptr, ptr @_ZL4conv, align 8, !tbaa !23
  call void @ucnv_close_77(ptr noundef %77)
  br label %78

78:                                               ; preds = %68, %34, %72, %40
  call void @llvm.lifetime.end.p0(i64 256, ptr nonnull %10) #9
  call void @llvm.lifetime.end.p0(i64 256, ptr nonnull %9) #9
  ret void
}